; Function Attrs: mustprogress uwtable
define noundef zeroext i1 @_ZN4base10JSONWriter16WriteWithOptionsERKNS_5ValueEiPNSt7__cxx1112basic_stringIcSt11char_traitsIcESaIcEEE(ptr noundef nonnull align 8 dereferenceable(12) %0, i32 noundef %1, ptr noundef nonnull initializes((8, 16)) %2) local_unnamed_addr #0 align 2 personality ptr @__gxx_personality_v0 {
  %4 = alloca %"class.base::JSONWriter", align 8
  %5 = getelementptr inbounds nuw i8, ptr %2, i64 8
  store i64 0, ptr %5, align 8, !tbaa !3
  %6 = load ptr, ptr %2, align 8, !tbaa !11
  store i8 0, ptr %6, align 1, !tbaa !12
  tail call void @_ZNSt7__cxx1112basic_stringIcSt11char_traitsIcESaIcEE7reserveEm(ptr noundef nonnull align 8 dereferenceable(32) %2, i64 noundef 1024)
  call void @llvm.lifetime.start.p0(i64 16, ptr nonnull %4) #11
  call void @_ZN4base10JSONWriterC1EiPNSt7__cxx1112basic_stringIcSt11char_traitsIcESaIcEEE(ptr noundef nonnull align 8 dereferenceable(16) %4, i32 noundef %1, ptr noundef nonnull %2)
  %7 = call noundef zeroext i1 @_ZN4base10JSONWriter15BuildJSONStringERKNS_5ValueEm(ptr noundef nonnull align 8 dereferenceable(16) %4, ptr noundef nonnull align 8 dereferenceable(12) %0, i64 noundef 0)
  %8 = and i32 %1, 4
  %.not = icmp eq i32 %8, 0
  br i1 %.not, label %14, label %9

9:                                                ; preds = %3
  %10 = load i64, ptr %5, align 8, !tbaa !3
  %11 = icmp eq i64 %10, 4611686018427387903
  br i1 %11, label %12, label %_ZNSt7__cxx1112basic_stringIcSt11char_traitsIcESaIcEE6appendEPKc.exit

12:                                               ; preds = %9
  call void @_ZSt20__throw_length_errorPKc(ptr noundef nonnull @.str.4) #12
  unreachable

_ZNSt7__cxx1112basic_stringIcSt11char_traitsIcESaIcEE6appendEPKc.exit: ; preds = %9
  %13 = call noundef nonnull align 8 dereferenceable(32) ptr @_ZNSt7__cxx1112basic_stringIcSt11char_traitsIcESaIcEE9_M_appendEPKcm(ptr noundef nonnull align 8 dereferenceable(32) %2, ptr noundef nonnull @_ZN4baseL22kPrettyPrintLineEndingE, i64 noundef 1)
  br label %14

14:                                               ; preds = %_ZNSt7__cxx1112basic_stringIcSt11char_traitsIcESaIcEE6appendEPKc.exit, %3
  call void @llvm.lifetime.end.p0(i64 16, ptr nonnull %4) #11
  ret i1 %7
}